; Function Attrs: nounwind uwtable
define range(i32 0, 2) i32 @HMAC_Init(ptr noundef captures(none) %0, ptr noundef %1, i32 noundef %2, ptr noundef %3) local_unnamed_addr #0 {
  %5 = icmp ne ptr %1, null
  %6 = icmp ne ptr %3, null
  %or.cond = and i1 %5, %6
  br i1 %or.cond, label %7, label %9

7:                                                ; preds = %4
  %8 = tail call i32 @HMAC_CTX_reset(ptr noundef %0)
  br label %9

9:                                                ; preds = %7, %4
  %10 = tail call i32 @HMAC_Init_ex(ptr noundef %0, ptr noundef %1, i32 noundef %2, ptr noundef %3, ptr noundef null)
  ret i32 %10
}